target datalayout = "e-m:e-p270:32:32-p271:32:32-p272:64:64-i64:64-i128:128-f80:128-n8:16:32:64-S128"
target triple = "x86_64-pc-linux-gnu"

%struct.Query = type { i32, i32, i32, i64, i8, ptr, i32, i8, i8, i8, i8, i8, i8, i8, i8, i8, i8, i8, ptr, ptr, ptr, ptr, ptr, i32, ptr, ptr, i32, ptr, ptr, ptr, ptr, ptr, i8, ptr, ptr, ptr, ptr, ptr, ptr, ptr, i32, ptr, ptr, ptr, ptr, i32, i32 }
%struct.List = type { i32, i32, i32, ptr, [0 x %union.ListCell] }
%union.ListCell = type { ptr }
%struct.ForEachState = type { ptr, i32 }
%struct.WindowClause = type { i32, ptr, ptr, ptr, ptr, i32, ptr, ptr, i32, i32, i32, i8, i8, i32, i8 }

; Function Attrs: nounwind uwtable
define dso_local ptr @query_tree_mutator_impl(ptr noundef %0, ptr noundef %1, ptr noundef %2, i32 noundef %3) #0 {
  %5 = alloca ptr, align 8
  %6 = alloca ptr, align 8
  %7 = alloca ptr, align 8
  %8 = alloca i32, align 4
  %9 = alloca ptr, align 8
  %10 = alloca ptr, align 8
  %11 = alloca ptr, align 8
  %12 = alloca %struct.ForEachState, align 8
  %13 = alloca ptr, align 8
  %14 = alloca ptr, align 8
  store ptr %0, ptr %5, align 8
  store ptr %1, ptr %6, align 8
  store ptr %2, ptr %7, align 8
  store i32 %3, ptr %8, align 4
  %15 = load i32, ptr %8, align 4
  %16 = and i32 %15, 64
  %17 = icmp ne i32 %16, 0
  br i1 %17, label %23, label %18

18:                                               ; preds = %4
  call void @llvm.lifetime.start.p0(i64 8, ptr %9) #7
  %19 = call ptr @palloc(i64 noundef 280)
  store ptr %19, ptr %9, align 8
  %20 = load ptr, ptr %9, align 8
  %21 = load ptr, ptr %5, align 8
  call void @llvm.memcpy.p0.p0.i64(ptr align 8 %20, ptr align 8 %21, i64 280, i1 false)
  %22 = load ptr, ptr %9, align 8
  store ptr %22, ptr %5, align 8
  call void @llvm.lifetime.end.p0(i64 8, ptr %9) #7
  br label %23

23:                                               ; preds = %18, %4
  %24 = load ptr, ptr %6, align 8
  %25 = load ptr, ptr %5, align 8
  %26 = getelementptr inbounds nuw %struct.Query, ptr %25, i32 0, i32 25
  %27 = load ptr, ptr %26, align 8
  %28 = load ptr, ptr %7, align 8
  %29 = call ptr %24(ptr noundef %27, ptr noundef %28)
  %30 = load ptr, ptr %5, align 8
  %31 = getelementptr inbounds nuw %struct.Query, ptr %30, i32 0, i32 25
  store ptr %29, ptr %31, align 8
  %32 = load ptr, ptr %6, align 8
  %33 = load ptr, ptr %5, align 8
  %34 = getelementptr inbounds nuw %struct.Query, ptr %33, i32 0, i32 44
  %35 = load ptr, ptr %34, align 8
  %36 = load ptr, ptr %7, align 8
  %37 = call ptr %32(ptr noundef %35, ptr noundef %36)
  %38 = load ptr, ptr %5, align 8
  %39 = getelementptr inbounds nuw %struct.Query, ptr %38, i32 0, i32 44
  store ptr %37, ptr %39, align 8
  %40 = load ptr, ptr %6, align 8
  %41 = load ptr, ptr %5, align 8
  %42 = getelementptr inbounds nuw %struct.Query, ptr %41, i32 0, i32 27
  %43 = load ptr, ptr %42, align 8
  %44 = load ptr, ptr %7, align 8
  %45 = call ptr %40(ptr noundef %43, ptr noundef %44)
  %46 = load ptr, ptr %5, align 8
  %47 = getelementptr inbounds nuw %struct.Query, ptr %46, i32 0, i32 27
  store ptr %45, ptr %47, align 8
  %48 = load ptr, ptr %6, align 8
  %49 = load ptr, ptr %5, align 8
  %50 = getelementptr inbounds nuw %struct.Query, ptr %49, i32 0, i32 22
  %51 = load ptr, ptr %50, align 8
  %52 = load ptr, ptr %7, align 8
  %53 = call ptr %48(ptr noundef %51, ptr noundef %52)
  %54 = load ptr, ptr %5, align 8
  %55 = getelementptr inbounds nuw %struct.Query, ptr %54, i32 0, i32 22
  store ptr %53, ptr %55, align 8
  %56 = load ptr, ptr %6, align 8
  %57 = load ptr, ptr %5, align 8
  %58 = getelementptr inbounds nuw %struct.Query, ptr %57, i32 0, i32 24
  %59 = load ptr, ptr %58, align 8
  %60 = load ptr, ptr %7, align 8
  %61 = call ptr %56(ptr noundef %59, ptr noundef %60)
  %62 = load ptr, ptr %5, align 8
  %63 = getelementptr inbounds nuw %struct.Query, ptr %62, i32 0, i32 24
  store ptr %61, ptr %63, align 8
  %64 = load ptr, ptr %6, align 8
  %65 = load ptr, ptr %5, align 8
  %66 = getelementptr inbounds nuw %struct.Query, ptr %65, i32 0, i32 30
  %67 = load ptr, ptr %66, align 8
  %68 = load ptr, ptr %7, align 8
  %69 = call ptr %64(ptr noundef %67, ptr noundef %68)
  %70 = load ptr, ptr %5, align 8
  %71 = getelementptr inbounds nuw %struct.Query, ptr %70, i32 0, i32 30
  store ptr %69, ptr %71, align 8
  %72 = load ptr, ptr %6, align 8
  %73 = load ptr, ptr %5, align 8
  %74 = getelementptr inbounds nuw %struct.Query, ptr %73, i32 0, i32 21
  %75 = load ptr, ptr %74, align 8
  %76 = load ptr, ptr %7, align 8
  %77 = call ptr %72(ptr noundef %75, ptr noundef %76)
  %78 = load ptr, ptr %5, align 8
  %79 = getelementptr inbounds nuw %struct.Query, ptr %78, i32 0, i32 21
  store ptr %77, ptr %79, align 8
  %80 = load ptr, ptr %6, align 8
  %81 = load ptr, ptr %5, align 8
  %82 = getelementptr inbounds nuw %struct.Query, ptr %81, i32 0, i32 42
  %83 = load ptr, ptr %82, align 8
  %84 = load ptr, ptr %7, align 8
  %85 = call ptr %80(ptr noundef %83, ptr noundef %84)
  %86 = load ptr, ptr %5, align 8
  %87 = getelementptr inbounds nuw %struct.Query, ptr %86, i32 0, i32 42
  store ptr %85, ptr %87, align 8
  %88 = load ptr, ptr %6, align 8
  %89 = load ptr, ptr %5, align 8
  %90 = getelementptr inbounds nuw %struct.Query, ptr %89, i32 0, i32 34
  %91 = load ptr, ptr %90, align 8
  %92 = load ptr, ptr %7, align 8
  %93 = call ptr %88(ptr noundef %91, ptr noundef %92)
  %94 = load ptr, ptr %5, align 8
  %95 = getelementptr inbounds nuw %struct.Query, ptr %94, i32 0, i32 34
  store ptr %93, ptr %95, align 8
  %96 = load ptr, ptr %6, align 8
  %97 = load ptr, ptr %5, align 8
  %98 = getelementptr inbounds nuw %struct.Query, ptr %97, i32 0, i32 38
  %99 = load ptr, ptr %98, align 8
  %100 = load ptr, ptr %7, align 8
  %101 = call ptr %96(ptr noundef %99, ptr noundef %100)
  %102 = load ptr, ptr %5, align 8
  %103 = getelementptr inbounds nuw %struct.Query, ptr %102, i32 0, i32 38
  store ptr %101, ptr %103, align 8
  %104 = load ptr, ptr %6, align 8
  %105 = load ptr, ptr %5, align 8
  %106 = getelementptr inbounds nuw %struct.Query, ptr %105, i32 0, i32 39
  %107 = load ptr, ptr %106, align 8
  %108 = load ptr, ptr %7, align 8
  %109 = call ptr %104(ptr noundef %107, ptr noundef %108)
  %110 = load ptr, ptr %5, align 8
  %111 = getelementptr inbounds nuw %struct.Query, ptr %110, i32 0, i32 39
  store ptr %109, ptr %111, align 8
  %112 = load i32, ptr %8, align 4
  %113 = and i32 %112, 128
  %114 = icmp ne i32 %113, 0
  br i1 %114, label %115, label %148

115:                                              ; preds = %23
  %116 = load ptr, ptr %6, align 8
  %117 = load ptr, ptr %5, align 8
  %118 = getelementptr inbounds nuw %struct.Query, ptr %117, i32 0, i32 31
  %119 = load ptr, ptr %118, align 8
  %120 = load ptr, ptr %7, align 8
  %121 = call ptr %116(ptr noundef %119, ptr noundef %120)
  %122 = load ptr, ptr %5, align 8
  %123 = getelementptr inbounds nuw %struct.Query, ptr %122, i32 0, i32 31
  store ptr %121, ptr %123, align 8
  %124 = load ptr, ptr %6, align 8
  %125 = load ptr, ptr %5, align 8
  %126 = getelementptr inbounds nuw %struct.Query, ptr %125, i32 0, i32 35
  %127 = load ptr, ptr %126, align 8
  %128 = load ptr, ptr %7, align 8
  %129 = call ptr %124(ptr noundef %127, ptr noundef %128)
  %130 = load ptr, ptr %5, align 8
  %131 = getelementptr inbounds nuw %struct.Query, ptr %130, i32 0, i32 35
  store ptr %129, ptr %131, align 8
  %132 = load ptr, ptr %6, align 8
  %133 = load ptr, ptr %5, align 8
  %134 = getelementptr inbounds nuw %struct.Query, ptr %133, i32 0, i32 37
  %135 = load ptr, ptr %134, align 8
  %136 = load ptr, ptr %7, align 8
  %137 = call ptr %132(ptr noundef %135, ptr noundef %136)
  %138 = load ptr, ptr %5, align 8
  %139 = getelementptr inbounds nuw %struct.Query, ptr %138, i32 0, i32 37
  store ptr %137, ptr %139, align 8
  %140 = load ptr, ptr %6, align 8
  %141 = load ptr, ptr %5, align 8
  %142 = getelementptr inbounds nuw %struct.Query, ptr %141, i32 0, i32 36
  %143 = load ptr, ptr %142, align 8
  %144 = load ptr, ptr %7, align 8
  %145 = call ptr %140(ptr noundef %143, ptr noundef %144)
  %146 = load ptr, ptr %5, align 8
  %147 = getelementptr inbounds nuw %struct.Query, ptr %146, i32 0, i32 36
  store ptr %145, ptr %147, align 8
  br label %214

148:                                              ; preds = %23
  call void @llvm.lifetime.start.p0(i64 8, ptr %10) #7
  call void @llvm.lifetime.start.p0(i64 8, ptr %11) #7
  store ptr null, ptr %10, align 8
  call void @llvm.lifetime.start.p0(i64 16, ptr %12) #7
  %149 = getelementptr inbounds nuw %struct.ForEachState, ptr %12, i32 0, i32 0
  %150 = load ptr, ptr %5, align 8
  %151 = getelementptr inbounds nuw %struct.Query, ptr %150, i32 0, i32 35
  %152 = load ptr, ptr %151, align 8
  store ptr %152, ptr %149, align 8
  %153 = getelementptr inbounds nuw %struct.ForEachState, ptr %12, i32 0, i32 1
  store i32 0, ptr %153, align 8
  %154 = getelementptr i8, ptr %12, i64 12
  call void @llvm.memset.p0.i64(ptr align 4 %154, i8 0, i64 4, i1 false)
  br label %155

155:                                              ; preds = %206, %148
  %156 = getelementptr inbounds nuw %struct.ForEachState, ptr %12, i32 0, i32 0
  %157 = load ptr, ptr %156, align 8
  %158 = icmp ne ptr %157, null
  br i1 %158, label %159, label %176

159:                                              ; preds = %155
  %160 = getelementptr inbounds nuw %struct.ForEachState, ptr %12, i32 0, i32 1
  %161 = load i32, ptr %160, align 8
  %162 = getelementptr inbounds nuw %struct.ForEachState, ptr %12, i32 0, i32 0
  %163 = load ptr, ptr %162, align 8
  %164 = getelementptr inbounds nuw %struct.List, ptr %163, i32 0, i32 1
  %165 = load i32, ptr %164, align 4
  %166 = icmp slt i32 %161, %165
  br i1 %166, label %167, label %176

167:                                              ; preds = %159
  %168 = getelementptr inbounds nuw %struct.ForEachState, ptr %12, i32 0, i32 0
  %169 = load ptr, ptr %168, align 8
  %170 = getelementptr inbounds nuw %struct.List, ptr %169, i32 0, i32 3
  %171 = load ptr, ptr %170, align 8
  %172 = getelementptr inbounds nuw %struct.ForEachState, ptr %12, i32 0, i32 1
  %173 = load i32, ptr %172, align 8
  %174 = sext i32 %173 to i64
  %175 = getelementptr inbounds %union.ListCell, ptr %171, i64 %174
  store ptr %175, ptr %11, align 8
  br label %177

176:                                              ; preds = %159, %155
  store ptr null, ptr %11, align 8
  br label %177

177:                                              ; preds = %176, %167
  %178 = phi i32 [ 1, %167 ], [ 0, %176 ]
  %179 = icmp ne i32 %178, 0
  br i1 %179, label %181, label %180

180:                                              ; preds = %177
  call void @llvm.lifetime.end.p0(i64 16, ptr %12) #7
  br label %210

181:                                              ; preds = %177
  call void @llvm.lifetime.start.p0(i64 8, ptr %13) #7
  %182 = load ptr, ptr %11, align 8
  %183 = load ptr, ptr %182, align 8
  store ptr %183, ptr %13, align 8
  call void @llvm.lifetime.start.p0(i64 8, ptr %14) #7
  %184 = call ptr @palloc(i64 noundef 88)
  store ptr %184, ptr %14, align 8
  %185 = load ptr, ptr %14, align 8
  %186 = load ptr, ptr %13, align 8
  call void @llvm.memcpy.p0.p0.i64(ptr align 8 %185, ptr align 8 %186, i64 88, i1 false)
  %187 = load ptr, ptr %6, align 8
  %188 = load ptr, ptr %13, align 8
  %189 = getelementptr inbounds nuw %struct.WindowClause, ptr %188, i32 0, i32 6
  %190 = load ptr, ptr %189, align 8
  %191 = load ptr, ptr %7, align 8
  %192 = call ptr %187(ptr noundef %190, ptr noundef %191)
  %193 = load ptr, ptr %14, align 8
  %194 = getelementptr inbounds nuw %struct.WindowClause, ptr %193, i32 0, i32 6
  store ptr %192, ptr %194, align 8
  %195 = load ptr, ptr %6, align 8
  %196 = load ptr, ptr %13, align 8
  %197 = getelementptr inbounds nuw %struct.WindowClause, ptr %196, i32 0, i32 7
  %198 = load ptr, ptr %197, align 8
  %199 = load ptr, ptr %7, align 8
  %200 = call ptr %195(ptr noundef %198, ptr noundef %199)
  %201 = load ptr, ptr %14, align 8
  %202 = getelementptr inbounds nuw %struct.WindowClause, ptr %201, i32 0, i32 7
  store ptr %200, ptr %202, align 8
  %203 = load ptr, ptr %10, align 8
  %204 = load ptr, ptr %14, align 8
  %205 = call ptr @lappend(ptr noundef %203, ptr noundef %204)
  store ptr %205, ptr %10, align 8
  call void @llvm.lifetime.end.p0(i64 8, ptr %14) #7
  call void @llvm.lifetime.end.p0(i64 8, ptr %13) #7
  br label %206

206:                                              ; preds = %181
  %207 = getelementptr inbounds nuw %struct.ForEachState, ptr %12, i32 0, i32 1
  %208 = load i32, ptr %207, align 8
  %209 = add i32 %208, 1
  store i32 %209, ptr %207, align 8
  br label %155, !llvm.loop !19

210:                                              ; preds = %180
  %211 = load ptr, ptr %10, align 8
  %212 = load ptr, ptr %5, align 8
  %213 = getelementptr inbounds nuw %struct.Query, ptr %212, i32 0, i32 35
  store ptr %211, ptr %213, align 8
  call void @llvm.lifetime.end.p0(i64 8, ptr %11) #7
  call void @llvm.lifetime.end.p0(i64 8, ptr %10) #7
  br label %214

214:                                              ; preds = %210, %115
  %215 = load i32, ptr %8, align 4
  %216 = and i32 %215, 2
  %217 = icmp ne i32 %216, 0
  br i1 %217, label %227, label %218

218:                                              ; preds = %214
  %219 = load ptr, ptr %6, align 8
  %220 = load ptr, ptr %5, align 8
  %221 = getelementptr inbounds nuw %struct.Query, ptr %220, i32 0, i32 18
  %222 = load ptr, ptr %221, align 8
  %223 = load ptr, ptr %7, align 8
  %224 = call ptr %219(ptr noundef %222, ptr noundef %223)
  %225 = load ptr, ptr %5, align 8
  %226 = getelementptr inbounds nuw %struct.Query, ptr %225, i32 0, i32 18
  store ptr %224, ptr %226, align 8
  br label %234

227:                                              ; preds = %214
  %228 = load ptr, ptr %5, align 8
  %229 = getelementptr inbounds nuw %struct.Query, ptr %228, i32 0, i32 18
  %230 = load ptr, ptr %229, align 8
  %231 = call ptr @copyObjectImpl(ptr noundef %230)
  %232 = load ptr, ptr %5, align 8
  %233 = getelementptr inbounds nuw %struct.Query, ptr %232, i32 0, i32 18
  store ptr %231, ptr %233, align 8
  br label %234

234:                                              ; preds = %227, %218
  %235 = load ptr, ptr %5, align 8
  %236 = getelementptr inbounds nuw %struct.Query, ptr %235, i32 0, i32 19
  %237 = load ptr, ptr %236, align 8
  %238 = load ptr, ptr %6, align 8
  %239 = load ptr, ptr %7, align 8
  %240 = load i32, ptr %8, align 4
  %241 = call ptr @range_table_mutator_impl(ptr noundef %237, ptr noundef %238, ptr noundef %239, i32 noundef %240)
  %242 = load ptr, ptr %5, align 8
  %243 = getelementptr inbounds nuw %struct.Query, ptr %242, i32 0, i32 19
  store ptr %241, ptr %243, align 8
  %244 = load ptr, ptr %5, align 8
  ret ptr %244
}