; Function Attrs: nounwind uwtable
define dso_local noundef ptr @query_tree_mutator_impl(ptr noundef captures(ret: address, provenance) %0, ptr noundef readonly captures(none) %1, ptr noundef %2, i32 noundef %3) local_unnamed_addr #0 {
  %5 = and i32 %3, 64
  %.not = icmp eq i32 %5, 0
  br i1 %.not, label %6, label %8

6:                                                ; preds = %4
  %7 = tail call ptr @palloc(i64 noundef 280) #13
  tail call void @llvm.memcpy.p0.p0.i64(ptr noundef nonnull align 8 dereferenceable(280) %7, ptr noundef nonnull align 8 dereferenceable(280) %0, i64 280, i1 false)
  br label %8

8:                                                ; preds = %6, %4
  %.0 = phi ptr [ %0, %4 ], [ %7, %6 ]
  %9 = getelementptr inbounds nuw i8, ptr %.0, i64 112
  %10 = load ptr, ptr %9, align 8
  %11 = tail call ptr %1(ptr noundef %10, ptr noundef %2) #13
  store ptr %11, ptr %9, align 8
  %12 = getelementptr inbounds nuw i8, ptr %.0, i64 264
  %13 = load ptr, ptr %12, align 8
  %14 = tail call ptr %1(ptr noundef %13, ptr noundef %2) #13
  store ptr %14, ptr %12, align 8
  %15 = getelementptr inbounds nuw i8, ptr %.0, i64 128
  %16 = load ptr, ptr %15, align 8
  %17 = tail call ptr %1(ptr noundef %16, ptr noundef %2) #13
  store ptr %17, ptr %15, align 8
  %18 = getelementptr inbounds nuw i8, ptr %.0, i64 88
  %19 = load ptr, ptr %18, align 8
  %20 = tail call ptr %1(ptr noundef %19, ptr noundef %2) #13
  store ptr %20, ptr %18, align 8
  %21 = getelementptr inbounds nuw i8, ptr %.0, i64 104
  %22 = load ptr, ptr %21, align 8
  %23 = tail call ptr %1(ptr noundef %22, ptr noundef %2) #13
  store ptr %23, ptr %21, align 8
  %24 = getelementptr inbounds nuw i8, ptr %.0, i64 152
  %25 = load ptr, ptr %24, align 8
  %26 = tail call ptr %1(ptr noundef %25, ptr noundef %2) #13
  store ptr %26, ptr %24, align 8
  %27 = getelementptr inbounds nuw i8, ptr %.0, i64 80
  %28 = load ptr, ptr %27, align 8
  %29 = tail call ptr %1(ptr noundef %28, ptr noundef %2) #13
  store ptr %29, ptr %27, align 8
  %30 = getelementptr inbounds nuw i8, ptr %.0, i64 248
  %31 = load ptr, ptr %30, align 8
  %32 = tail call ptr %1(ptr noundef %31, ptr noundef %2) #13
  store ptr %32, ptr %30, align 8
  %33 = getelementptr inbounds nuw i8, ptr %.0, i64 184
  %34 = load ptr, ptr %33, align 8
  %35 = tail call ptr %1(ptr noundef %34, ptr noundef %2) #13
  store ptr %35, ptr %33, align 8
  %36 = getelementptr inbounds nuw i8, ptr %.0, i64 216
  %37 = load ptr, ptr %36, align 8
  %38 = tail call ptr %1(ptr noundef %37, ptr noundef %2) #13
  store ptr %38, ptr %36, align 8
  %39 = getelementptr inbounds nuw i8, ptr %.0, i64 224
  %40 = load ptr, ptr %39, align 8
  %41 = tail call ptr %1(ptr noundef %40, ptr noundef %2) #13
  store ptr %41, ptr %39, align 8
  %42 = and i32 %3, 128
  %.not100 = icmp eq i32 %42, 0
  br i1 %.not100, label %56, label %43

43:                                               ; preds = %8
  %44 = getelementptr inbounds nuw i8, ptr %.0, i64 160
  %45 = load ptr, ptr %44, align 8
  %46 = tail call ptr %1(ptr noundef %45, ptr noundef %2) #13
  store ptr %46, ptr %44, align 8
  %47 = getelementptr inbounds nuw i8, ptr %.0, i64 192
  %48 = load ptr, ptr %47, align 8
  %49 = tail call ptr %1(ptr noundef %48, ptr noundef %2) #13
  store ptr %49, ptr %47, align 8
  %50 = getelementptr inbounds nuw i8, ptr %.0, i64 208
  %51 = load ptr, ptr %50, align 8
  %52 = tail call ptr %1(ptr noundef %51, ptr noundef %2) #13
  store ptr %52, ptr %50, align 8
  %53 = getelementptr inbounds nuw i8, ptr %.0, i64 200
  %54 = load ptr, ptr %53, align 8
  %55 = tail call ptr %1(ptr noundef %54, ptr noundef %2) #13
  store ptr %55, ptr %53, align 8
  br label %79

56:                                               ; preds = %8
  %57 = getelementptr inbounds nuw i8, ptr %.0, i64 192
  %58 = load ptr, ptr %57, align 8
  %59 = getelementptr inbounds nuw i8, ptr %58, i64 4
  %.not101 = icmp eq ptr %58, null
  br i1 %.not101, label %._crit_edge, label %.lr.ph

.lr.ph:                                           ; preds = %56
  %60 = getelementptr inbounds nuw i8, ptr %58, i64 16
  %61 = load i32, ptr %59, align 4
  %62 = icmp sgt i32 %61, 0
  br i1 %62, label %.lr.ph113, label %._crit_edge

._crit_edge:                                      ; preds = %.lr.ph113, %.lr.ph, %56
  %.097.lcssa = phi ptr [ null, %56 ], [ null, %.lr.ph ], [ %75, %.lr.ph113 ]
  store ptr %.097.lcssa, ptr %57, align 8
  br label %79

.lr.ph113:                                        ; preds = %.lr.ph, %.lr.ph113
  %indvars.iv = phi i64 [ %indvars.iv.next, %.lr.ph113 ], [ 0, %.lr.ph ]
  %.097107111 = phi ptr [ %75, %.lr.ph113 ], [ null, %.lr.ph ]
  %63 = load ptr, ptr %60, align 8
  %64 = getelementptr inbounds nuw %union.ListCell, ptr %63, i64 %indvars.iv
  %65 = load ptr, ptr %64, align 8
  %66 = tail call ptr @palloc(i64 noundef 88) #13
  tail call void @llvm.memcpy.p0.p0.i64(ptr noundef nonnull align 8 dereferenceable(88) %66, ptr noundef nonnull align 8 dereferenceable(88) %65, i64 88, i1 false)
  %67 = getelementptr inbounds nuw i8, ptr %65, i64 48
  %68 = load ptr, ptr %67, align 8
  %69 = tail call ptr %1(ptr noundef %68, ptr noundef %2) #13
  %70 = getelementptr inbounds nuw i8, ptr %66, i64 48
  store ptr %69, ptr %70, align 8
  %71 = getelementptr inbounds nuw i8, ptr %65, i64 56
  %72 = load ptr, ptr %71, align 8
  %73 = tail call ptr %1(ptr noundef %72, ptr noundef %2) #13
  %74 = getelementptr inbounds nuw i8, ptr %66, i64 56
  store ptr %73, ptr %74, align 8
  %75 = tail call ptr @lappend(ptr noundef %.097107111, ptr noundef nonnull %66) #13
  %indvars.iv.next = add nuw nsw i64 %indvars.iv, 1
  %76 = load i32, ptr %59, align 4
  %77 = sext i32 %76 to i64
  %78 = icmp slt i64 %indvars.iv.next, %77
  br i1 %78, label %.lr.ph113, label %._crit_edge

79:                                               ; preds = %._crit_edge, %43
  %80 = and i32 %3, 2
  %.not103 = icmp eq i32 %80, 0
  %81 = getelementptr inbounds nuw i8, ptr %.0, i64 56
  %82 = load ptr, ptr %81, align 8
  br i1 %.not103, label %83, label %85

83:                                               ; preds = %79
  %84 = tail call ptr %1(ptr noundef %82, ptr noundef %2) #13
  br label %87

85:                                               ; preds = %79
  %86 = tail call ptr @copyObjectImpl(ptr noundef %82) #13
  br label %87

87:                                               ; preds = %85, %83
  %.sink = phi ptr [ %86, %85 ], [ %84, %83 ]
  store ptr %.sink, ptr %81, align 8
  %88 = getelementptr inbounds nuw i8, ptr %.0, i64 64
  %89 = load ptr, ptr %88, align 8
  %90 = tail call ptr @range_table_mutator_impl(ptr noundef %89, ptr noundef %1, ptr noundef %2, i32 noundef %3)
  store ptr %90, ptr %88, align 8
  ret ptr %.0
}